target datalayout = "e-m:e-p270:32:32-p271:32:32-p272:64:64-i64:64-i128:128-f80:128-n8:16:32:64-S128"
target triple = "x86_64-pc-linux-gnu"

%"class.ncnn::CpuSet" = type { %struct.cpu_set_t }
%struct.cpu_set_t = type { [16 x i64] }

; Function Attrs: mustprogress nounwind uwtable
define hidden void @_ZN4ncnn6CpuSet7disableEi(ptr noundef nonnull align 8 dereferenceable(128) %0, i32 noundef %1) #2 align 2 {
  %3 = alloca ptr, align 8
  %4 = alloca i32, align 4
  %5 = alloca i64, align 8
  %6 = alloca i64, align 8
  store ptr %0, ptr %3, align 8, !tbaa !4
  store i32 %1, ptr %4, align 4, !tbaa !9
  %7 = load ptr, ptr %3, align 8
  call void @llvm.lifetime.start.p0(i64 8, ptr %5) #17
  %8 = load i32, ptr %4, align 4, !tbaa !9
  %9 = sext i32 %8 to i64
  store i64 %9, ptr %5, align 8, !tbaa !11
  %10 = load i64, ptr %5, align 8, !tbaa !11
  %11 = udiv i64 %10, 8
  %12 = icmp ult i64 %11, 128
  br i1 %12, label %13, label %26

13:                                               ; preds = %2
  %14 = load i64, ptr %5, align 8, !tbaa !11
  %15 = urem i64 %14, 64
  %16 = shl i64 1, %15
  %17 = xor i64 %16, -1
  %18 = getelementptr inbounds nuw %"class.ncnn::CpuSet", ptr %7, i32 0, i32 0
  %19 = getelementptr inbounds nuw %struct.cpu_set_t, ptr %18, i32 0, i32 0
  %20 = getelementptr inbounds [16 x i64], ptr %19, i64 0, i64 0
  %21 = load i64, ptr %5, align 8, !tbaa !11
  %22 = udiv i64 %21, 64
  %23 = getelementptr inbounds nuw i64, ptr %20, i64 %22
  %24 = load i64, ptr %23, align 8, !tbaa !11
  %25 = and i64 %24, %17
  store i64 %25, ptr %23, align 8, !tbaa !11
  br label %27

26:                                               ; preds = %2
  br label %27

27:                                               ; preds = %26, %13
  %28 = phi i64 [ %25, %13 ], [ 0, %26 ]
  store i64 %28, ptr %6, align 8, !tbaa !11
  call void @llvm.lifetime.end.p0(i64 8, ptr %5) #17
  ret void
}