; Function Attrs: mustprogress nofree norecurse nosync nounwind willreturn memory(argmem: readwrite) uwtable
define hidden void @_ZN4ncnn6CpuSet7disableEi(ptr noundef nonnull align 8 captures(none) dereferenceable(128) %0, i32 noundef %1) local_unnamed_addr #1 align 2 {
  %3 = icmp ult i32 %1, 1024
  br i1 %3, label %4, label %13

4:                                                ; preds = %2
  %5 = zext nneg i32 %1 to i64
  %6 = and i64 %5, 63
  %7 = shl nuw i64 1, %6
  %8 = xor i64 %7, -1
  %9 = lshr i64 %5, 6
  %10 = getelementptr inbounds nuw i64, ptr %0, i64 %9
  %11 = load i64, ptr %10, align 8, !tbaa !4
  %12 = and i64 %11, %8
  store i64 %12, ptr %10, align 8, !tbaa !4
  br label %13

13:                                               ; preds = %2, %4
  ret void
}